target datalayout = "e-m:e-p270:32:32-p271:32:32-p272:64:64-i64:64-i128:128-f80:128-n8:16:32:64-S128"
target triple = "x86_64-pc-linux-gnu"

%struct.POINT = type { i64, i64 }
%struct.RECT = type { i64, i64, i64, i64 }

; Function Attrs: nounwind uwtable
define i32 @PointInRect(ptr noundef %0, i64 %1, i64 %2) #0 {
  %4 = alloca i32, align 4
  %5 = alloca %struct.POINT, align 8
  %6 = alloca ptr, align 8
  %7 = getelementptr inbounds nuw { i64, i64 }, ptr %5, i32 0, i32 0
  store i64 %1, ptr %7, align 8
  %8 = getelementptr inbounds nuw { i64, i64 }, ptr %5, i32 0, i32 1
  store i64 %2, ptr %8, align 8
  store ptr %0, ptr %6, align 8, !tbaa !7
  %9 = getelementptr inbounds nuw %struct.POINT, ptr %5, i32 0, i32 0
  %10 = load i64, ptr %9, align 8, !tbaa !76
  %11 = load ptr, ptr %6, align 8, !tbaa !7
  %12 = getelementptr inbounds nuw %struct.RECT, ptr %11, i32 0, i32 0
  %13 = load i64, ptr %12, align 8, !tbaa !78
  %14 = icmp slt i64 %10, %13
  br i1 %14, label %15, label %16

15:                                               ; preds = %3
  store i32 0, ptr %4, align 4
  br label %41

16:                                               ; preds = %3
  %17 = getelementptr inbounds nuw %struct.POINT, ptr %5, i32 0, i32 0
  %18 = load i64, ptr %17, align 8, !tbaa !76
  %19 = load ptr, ptr %6, align 8, !tbaa !7
  %20 = getelementptr inbounds nuw %struct.RECT, ptr %19, i32 0, i32 2
  %21 = load i64, ptr %20, align 8, !tbaa !80
  %22 = icmp sgt i64 %18, %21
  br i1 %22, label %23, label %24

23:                                               ; preds = %16
  store i32 0, ptr %4, align 4
  br label %41

24:                                               ; preds = %16
  %25 = getelementptr inbounds nuw %struct.POINT, ptr %5, i32 0, i32 1
  %26 = load i64, ptr %25, align 8, !tbaa !81
  %27 = load ptr, ptr %6, align 8, !tbaa !7
  %28 = getelementptr inbounds nuw %struct.RECT, ptr %27, i32 0, i32 1
  %29 = load i64, ptr %28, align 8, !tbaa !82
  %30 = icmp slt i64 %26, %29
  br i1 %30, label %31, label %32

31:                                               ; preds = %24
  store i32 0, ptr %4, align 4
  br label %41

32:                                               ; preds = %24
  %33 = getelementptr inbounds nuw %struct.POINT, ptr %5, i32 0, i32 1
  %34 = load i64, ptr %33, align 8, !tbaa !81
  %35 = load ptr, ptr %6, align 8, !tbaa !7
  %36 = getelementptr inbounds nuw %struct.RECT, ptr %35, i32 0, i32 3
  %37 = load i64, ptr %36, align 8, !tbaa !83
  %38 = icmp sgt i64 %34, %37
  br i1 %38, label %39, label %40

39:                                               ; preds = %32
  store i32 0, ptr %4, align 4
  br label %41

40:                                               ; preds = %32
  store i32 1, ptr %4, align 4
  br label %41

41:                                               ; preds = %40, %39, %31, %23, %15
  %42 = load i32, ptr %4, align 4
  ret i32 %42
}