; Function Attrs: mustprogress nofree norecurse nosync nounwind willreturn memory(argmem: read) uwtable
define range(i32 0, 2) i32 @PointInRect(ptr noundef readonly captures(none) %0, i64 %1, i64 %2) local_unnamed_addr #11 {
  %4 = load i64, ptr %0, align 8, !tbaa !62
  %5 = icmp slt i64 %1, %4
  br i1 %5, label %18, label %6

6:                                                ; preds = %3
  %7 = getelementptr inbounds nuw i8, ptr %0, i64 16
  %8 = load i64, ptr %7, align 8, !tbaa !64
  %9 = icmp sgt i64 %1, %8
  br i1 %9, label %18, label %10

10:                                               ; preds = %6
  %11 = getelementptr inbounds nuw i8, ptr %0, i64 8
  %12 = load i64, ptr %11, align 8, !tbaa !65
  %13 = icmp slt i64 %2, %12
  br i1 %13, label %18, label %14

14:                                               ; preds = %10
  %15 = getelementptr inbounds nuw i8, ptr %0, i64 24
  %16 = load i64, ptr %15, align 8, !tbaa !66
  %17 = icmp sle i64 %2, %16
  %. = zext i1 %17 to i32
  br label %18

18:                                               ; preds = %14, %10, %6, %3
  %.0 = phi i32 [ 0, %3 ], [ 0, %6 ], [ 0, %10 ], [ %., %14 ]
  ret i32 %.0
}